target datalayout = "e-m:e-p270:32:32-p271:32:32-p272:64:64-i64:64-i128:128-f80:128-n8:16:32:64-S128"
target triple = "x86_64-pc-linux-gnu"

%struct.BufFile = type { i32, ptr, i8, i8, i8, ptr, ptr, ptr, i32, i64, i32, i32, %union.PGAlignedBlock }
%union.PGAlignedBlock = type { double, [8184 x i8] }

; Function Attrs: nounwind uwtable
define internal void @BufFileFlush(ptr noundef %0) #0 {
  %2 = alloca ptr, align 8
  store ptr %0, ptr %2, align 8
  %3 = load ptr, ptr %2, align 8
  %4 = getelementptr inbounds nuw %struct.BufFile, ptr %3, i32 0, i32 3
  %5 = load i8, ptr %4, align 1, !range !4, !noundef !5
  %6 = trunc i8 %5 to i1
  br i1 %6, label %7, label %9

7:                                                ; preds = %1
  %8 = load ptr, ptr %2, align 8
  call void @BufFileDumpBuffer(ptr noundef %8)
  br label %9

9:                                                ; preds = %7, %1
  ret void
}

; Function Attrs: nounwind uwtable
define dso_local void @BufFileClose(ptr noundef %0) #0 {
  %2 = alloca ptr, align 8
  %3 = alloca i32, align 4
  store ptr %0, ptr %2, align 8
  call void @llvm.lifetime.start.p0(i64 4, ptr %3) #8
  %4 = load ptr, ptr %2, align 8
  call void @BufFileFlush(ptr noundef %4)
  store i32 0, ptr %3, align 4
  br label %5

5:                                                ; preds = %19, %1
  %6 = load i32, ptr %3, align 4
  %7 = load ptr, ptr %2, align 8
  %8 = getelementptr inbounds nuw %struct.BufFile, ptr %7, i32 0, i32 0
  %9 = load i32, ptr %8, align 8
  %10 = icmp slt i32 %6, %9
  br i1 %10, label %11, label %22

11:                                               ; preds = %5
  %12 = load ptr, ptr %2, align 8
  %13 = getelementptr inbounds nuw %struct.BufFile, ptr %12, i32 0, i32 1
  %14 = load ptr, ptr %13, align 8
  %15 = load i32, ptr %3, align 4
  %16 = sext i32 %15 to i64
  %17 = getelementptr inbounds i32, ptr %14, i64 %16
  %18 = load i32, ptr %17, align 4
  call void @FileClose(i32 noundef %18)
  br label %19

19:                                               ; preds = %11
  %20 = load i32, ptr %3, align 4
  %21 = add i32 %20, 1
  store i32 %21, ptr %3, align 4
  br label %5, !llvm.loop !6

22:                                               ; preds = %5
  %23 = load ptr, ptr %2, align 8
  %24 = getelementptr inbounds nuw %struct.BufFile, ptr %23, i32 0, i32 1
  %25 = load ptr, ptr %24, align 8
  call void @pfree(ptr noundef %25)
  %26 = load ptr, ptr %2, align 8
  call void @pfree(ptr noundef %26)
  call void @llvm.lifetime.end.p0(i64 4, ptr %3) #8
  ret void
}