; Function Attrs: nounwind uwtable
define dso_local void @BufFileClose(ptr noundef %0) local_unnamed_addr #0 {
  %2 = getelementptr inbounds nuw i8, ptr %0, i64 17
  %3 = load i8, ptr %2, align 1, !range !5, !noundef !6
  %4 = trunc nuw i8 %3 to i1
  br i1 %4, label %5, label %BufFileFlush.exit

5:                                                ; preds = %1
  tail call fastcc void @BufFileDumpBuffer(ptr noundef nonnull %0)
  br label %BufFileFlush.exit

BufFileFlush.exit:                                ; preds = %1, %5
  %6 = load i32, ptr %0, align 8
  %7 = icmp sgt i32 %6, 0
  br i1 %7, label %.lr.ph, label %._crit_edge

.lr.ph:                                           ; preds = %BufFileFlush.exit
  %8 = getelementptr inbounds nuw i8, ptr %0, i64 8
  br label %9

9:                                                ; preds = %.lr.ph, %9
  %indvars.iv = phi i64 [ 0, %.lr.ph ], [ %indvars.iv.next, %9 ]
  %10 = load ptr, ptr %8, align 8
  %11 = getelementptr inbounds nuw i32, ptr %10, i64 %indvars.iv
  %12 = load i32, ptr %11, align 4
  tail call void @FileClose(i32 noundef %12) #10
  %indvars.iv.next = add nuw nsw i64 %indvars.iv, 1
  %13 = load i32, ptr %0, align 8
  %14 = sext i32 %13 to i64
  %15 = icmp slt i64 %indvars.iv.next, %14
  br i1 %15, label %9, label %._crit_edge, !llvm.loop !7

._crit_edge:                                      ; preds = %9, %BufFileFlush.exit
  %16 = getelementptr inbounds nuw i8, ptr %0, i64 8
  %17 = load ptr, ptr %16, align 8
  tail call void @pfree(ptr noundef %17) #10
  tail call void @pfree(ptr noundef nonnull %0) #10
  ret void
}